(istructure
knowledge
p0
(dp1
b.(istructure
knowledge
p0
(dp1
b.(istructure
knowledge
p0
(dp1
b.(istructure
knowledge
p0
(dp1
b.(istructure
knowledge
p0
(dp1
b.(istructure
knowledge
p0
(dp1
b.(istructure
knowledge
p0
(dp1
b.(istructure
knowledge
p0
(dp1
b.(istructure
knowledge
p0
(dp1
b.(istructure
knowledge
p0
(dp1
b.(istructure
knowledge
p0
(dp1
b.(istructure
knowledge
p0
(dp1
b.(istructure
knowledge
p0
(dp1
b.(istructure
knowledge
p0
(dp1
b.(istructure
knowledge
p0
(dp1
b.